target datalayout = "e-m:e-p270:32:32-p271:32:32-p272:64:64-i64:64-i128:128-f80:128-n8:16:32:64-S128"
target triple = "x86_64-unknown-linux-gnu"

%"class.euf::specrel_plugin" = type { %"class.euf::plugin", %class.scoped_ptr_vector, %class.ptr_vector, %class.obj_map, %class.special_relations_util }
%"class.euf::plugin" = type { ptr, ptr }
%class.scoped_ptr_vector = type { %class.ptr_vector }
%class.ptr_vector = type { %class.vector }
%class.vector = type { ptr }
%class.obj_map = type { %class.core_hashtable }
%class.core_hashtable = type <{ ptr, i32, i32, i32, [4 x i8] }>
%class.special_relations_util = type <{ ptr, i32, [4 x i8] }>
%class.anon = type { ptr, ptr }

; Function Attrs: mustprogress uwtable
define linkonce_odr hidden noundef nonnull align 8 dereferenceable(8) ptr @_ZN6vectorIPN3euf9ac_pluginELb0EjE9push_backERKS2_(ptr noundef nonnull align 8 dereferenceable(8) %this, ptr noundef nonnull align 8 dereferenceable(8) %elem) #5 comdat align 2 {
entry:
  %this.addr = alloca ptr, align 8
  %elem.addr = alloca ptr, align 8
  store ptr %this, ptr %this.addr, align 8
  store ptr %elem, ptr %elem.addr, align 8
  %this1 = load ptr, ptr %this.addr, align 8
  %m_data = getelementptr inbounds %class.vector, ptr %this1, i32 0, i32 0
  %0 = load ptr, ptr %m_data, align 8
  %cmp = icmp eq ptr %0, null
  br i1 %cmp, label %if.then, label %lor.lhs.false

lor.lhs.false:                                    ; preds = %entry
  %m_data2 = getelementptr inbounds %class.vector, ptr %this1, i32 0, i32 0
  %1 = load ptr, ptr %m_data2, align 8
  %arrayidx = getelementptr inbounds i32, ptr %1, i64 -1
  %2 = load i32, ptr %arrayidx, align 4
  %m_data3 = getelementptr inbounds %class.vector, ptr %this1, i32 0, i32 0
  %3 = load ptr, ptr %m_data3, align 8
  %arrayidx4 = getelementptr inbounds i32, ptr %3, i64 -2
  %4 = load i32, ptr %arrayidx4, align 4
  %cmp5 = icmp eq i32 %2, %4
  br i1 %cmp5, label %if.then, label %if.end

if.then:                                          ; preds = %lor.lhs.false, %entry
  call void @_ZN6vectorIPN3euf9ac_pluginELb0EjE13expand_vectorEv(ptr noundef nonnull align 8 dereferenceable(8) %this1)
  br label %if.end

if.end:                                           ; preds = %if.then, %lor.lhs.false
  %m_data6 = getelementptr inbounds %class.vector, ptr %this1, i32 0, i32 0
  %5 = load ptr, ptr %m_data6, align 8
  %m_data7 = getelementptr inbounds %class.vector, ptr %this1, i32 0, i32 0
  %6 = load ptr, ptr %m_data7, align 8
  %arrayidx8 = getelementptr inbounds i32, ptr %6, i64 -1
  %7 = load i32, ptr %arrayidx8, align 4
  %idx.ext = zext i32 %7 to i64
  %add.ptr = getelementptr inbounds ptr, ptr %5, i64 %idx.ext
  %8 = load ptr, ptr %elem.addr, align 8
  %9 = load ptr, ptr %8, align 8
  store ptr %9, ptr %add.ptr, align 8
  %m_data9 = getelementptr inbounds %class.vector, ptr %this1, i32 0, i32 0
  %10 = load ptr, ptr %m_data9, align 8
  %arrayidx10 = getelementptr inbounds i32, ptr %10, i64 -1
  %11 = load i32, ptr %arrayidx10, align 4
  %inc = add i32 %11, 1
  store i32 %inc, ptr %arrayidx10, align 4
  ret ptr %this1
}

; Function Attrs: mustprogress uwtable
define internal void @"_ZZN3euf14specrel_plugin13register_nodeEPNS_5enodeEENK3$_0clEv"(ptr noundef nonnull align 8 dereferenceable(16) %this) #5 align 2 {
entry:
  %this.addr = alloca ptr, align 8
  store ptr %this, ptr %this.addr, align 8
  %this1 = load ptr, ptr %this.addr, align 8
  %0 = getelementptr inbounds %class.anon, ptr %this1, i32 0, i32 0
  %1 = load ptr, ptr %0, align 8
  %m_undo = getelementptr inbounds %"class.euf::specrel_plugin", ptr %1, i32 0, i32 2
  %2 = getelementptr inbounds %class.anon, ptr %this1, i32 0, i32 1
  %3 = load ptr, ptr %2, align 8
  %call = call noundef nonnull align 8 dereferenceable(8) ptr @_ZN6vectorIPN3euf9ac_pluginELb0EjE9push_backERKS2_(ptr noundef nonnull align 8 dereferenceable(8) %m_undo, ptr noundef nonnull align 8 dereferenceable(8) %3)
  ret void
}

; Function Attrs: mustprogress nounwind uwtable
define linkonce_odr hidden noundef ptr @_ZNKSt9_Any_data9_M_accessEv(ptr noundef nonnull align 8 dereferenceable(16) %this) #4 comdat align 2 {
entry:
  %this.addr = alloca ptr, align 8
  store ptr %this, ptr %this.addr, align 8
  %this1 = load ptr, ptr %this.addr, align 8
  %arrayidx = getelementptr inbounds [16 x i8], ptr %this1, i64 0, i64 0
  ret ptr %arrayidx
}

; Function Attrs: mustprogress uwtable
define internal void @"_ZSt13__invoke_implIvRZN3euf14specrel_plugin13register_nodeEPNS0_5enodeEE3$_0JEET_St14__invoke_otherOT0_DpOT1_"(ptr noundef nonnull align 8 dereferenceable(16) %__f) #5 {
entry:
  %__f.addr = alloca ptr, align 8
  store ptr %__f, ptr %__f.addr, align 8
  %0 = load ptr, ptr %__f.addr, align 8
  call void @"_ZZN3euf14specrel_plugin13register_nodeEPNS_5enodeEENK3$_0clEv"(ptr noundef nonnull align 8 dereferenceable(16) %0)
  ret void
}

; Function Attrs: mustprogress nounwind uwtable
define internal noundef nonnull align 8 dereferenceable(16) ptr @"_ZNKSt9_Any_data9_M_accessIZN3euf14specrel_plugin13register_nodeEPNS1_5enodeEE3$_0EERKT_v"(ptr noundef nonnull align 8 dereferenceable(16) %this) #4 align 2 {
entry:
  %this.addr = alloca ptr, align 8
  store ptr %this, ptr %this.addr, align 8
  %this1 = load ptr, ptr %this.addr, align 8
  %call = call noundef ptr @_ZNKSt9_Any_data9_M_accessEv(ptr noundef nonnull align 8 dereferenceable(16) %this1) #3
  ret ptr %call
}

; Function Attrs: mustprogress uwtable
define internal void @"_ZSt10__invoke_rIvRZN3euf14specrel_plugin13register_nodeEPNS0_5enodeEE3$_0JEENSt9enable_ifIX16is_invocable_r_vIT_T0_DpT1_EES7_E4typeEOS8_DpOS9_"(ptr noundef nonnull align 8 dereferenceable(16) %__fn) #5 {
entry:
  %__fn.addr = alloca ptr, align 8
  store ptr %__fn, ptr %__fn.addr, align 8
  %0 = load ptr, ptr %__fn.addr, align 8
  call void @"_ZSt13__invoke_implIvRZN3euf14specrel_plugin13register_nodeEPNS0_5enodeEE3$_0JEET_St14__invoke_otherOT0_DpOT1_"(ptr noundef nonnull align 8 dereferenceable(16) %0)
  ret void
}

; Function Attrs: mustprogress nounwind uwtable
define internal noundef ptr @"_ZNSt14_Function_base13_Base_managerIZN3euf14specrel_plugin13register_nodeEPNS1_5enodeEE3$_0E14_M_get_pointerERKSt9_Any_data"(ptr noundef nonnull align 8 dereferenceable(16) %__source) #4 align 2 {
entry:
  %__source.addr = alloca ptr, align 8
  %__f = alloca ptr, align 8
  store ptr %__source, ptr %__source.addr, align 8
  %0 = load ptr, ptr %__source.addr, align 8
  %call = call noundef nonnull align 8 dereferenceable(16) ptr @"_ZNKSt9_Any_data9_M_accessIZN3euf14specrel_plugin13register_nodeEPNS1_5enodeEE3$_0EERKT_v"(ptr noundef nonnull align 8 dereferenceable(16) %0) #3
  store ptr %call, ptr %__f, align 8
  %1 = load ptr, ptr %__f, align 8
  ret ptr %1
}

; Function Attrs: mustprogress uwtable
define internal void @"_ZNSt17_Function_handlerIFvvEZN3euf14specrel_plugin13register_nodeEPNS1_5enodeEE3$_0E9_M_invokeERKSt9_Any_data"(ptr noundef nonnull align 8 dereferenceable(16) %__functor) #5 align 2 {
entry:
  %__functor.addr = alloca ptr, align 8
  store ptr %__functor, ptr %__functor.addr, align 8
  %0 = load ptr, ptr %__functor.addr, align 8
  %call = call noundef ptr @"_ZNSt14_Function_base13_Base_managerIZN3euf14specrel_plugin13register_nodeEPNS1_5enodeEE3$_0E14_M_get_pointerERKSt9_Any_data"(ptr noundef nonnull align 8 dereferenceable(16) %0) #3
  call void @"_ZSt10__invoke_rIvRZN3euf14specrel_plugin13register_nodeEPNS0_5enodeEE3$_0JEENSt9enable_ifIX16is_invocable_r_vIT_T0_DpT1_EES7_E4typeEOS8_DpOS9_"(ptr noundef nonnull align 8 dereferenceable(16) %call)
  ret void
}