; Function Attrs: mustprogress uwtable
define internal void @"_ZNSt17_Function_handlerIFvvEZN3euf14specrel_plugin13register_nodeEPNS1_5enodeEE3$_0E9_M_invokeERKSt9_Any_data"(ptr nocapture noundef nonnull readonly align 8 dereferenceable(16) %__functor) #3 align 2 {
entry:
  %call.val = load ptr, ptr %__functor, align 8
  %0 = getelementptr inbounds i8, ptr %__functor, i64 8
  %call.val1 = load ptr, ptr %0, align 8
  %m_undo.i.i.i = getelementptr inbounds i8, ptr %call.val, i64 24
  %1 = load ptr, ptr %m_undo.i.i.i, align 8
  %cmp.i.i.i.i = icmp eq ptr %1, null
  br i1 %cmp.i.i.i.i, label %if.then.i.i.i.i, label %lor.lhs.false.i.i.i.i

lor.lhs.false.i.i.i.i:                            ; preds = %entry
  %arrayidx.i.i.i.i = getelementptr inbounds i8, ptr %1, i64 -4
  %2 = load i32, ptr %arrayidx.i.i.i.i, align 4
  %arrayidx4.i.i.i.i = getelementptr inbounds i8, ptr %1, i64 -8
  %3 = load i32, ptr %arrayidx4.i.i.i.i, align 4
  %cmp5.i.i.i.i = icmp eq i32 %2, %3
  br i1 %cmp5.i.i.i.i, label %if.then.i.i.i.i, label %"_ZSt10__invoke_rIvRZN3euf14specrel_plugin13register_nodeEPNS0_5enodeEE3$_0JEENSt9enable_ifIX16is_invocable_r_vIT_T0_DpT1_EES7_E4typeEOS8_DpOS9_.exit"

if.then.i.i.i.i:                                  ; preds = %lor.lhs.false.i.i.i.i, %entry
  tail call void @_ZN6vectorIPN3euf9ac_pluginELb0EjE13expand_vectorEv(ptr noundef nonnull align 8 dereferenceable(8) %m_undo.i.i.i)
  %.pre.i.i.i.i = load ptr, ptr %m_undo.i.i.i, align 8
  %arrayidx8.phi.trans.insert.i.i.i.i = getelementptr inbounds i8, ptr %.pre.i.i.i.i, i64 -4
  %.pre1.i.i.i.i = load i32, ptr %arrayidx8.phi.trans.insert.i.i.i.i, align 4
  br label %"_ZSt10__invoke_rIvRZN3euf14specrel_plugin13register_nodeEPNS0_5enodeEE3$_0JEENSt9enable_ifIX16is_invocable_r_vIT_T0_DpT1_EES7_E4typeEOS8_DpOS9_.exit"

"_ZSt10__invoke_rIvRZN3euf14specrel_plugin13register_nodeEPNS0_5enodeEE3$_0JEENSt9enable_ifIX16is_invocable_r_vIT_T0_DpT1_EES7_E4typeEOS8_DpOS9_.exit": ; preds = %lor.lhs.false.i.i.i.i, %if.then.i.i.i.i
  %4 = phi i32 [ %.pre1.i.i.i.i, %if.then.i.i.i.i ], [ %2, %lor.lhs.false.i.i.i.i ]
  %5 = phi ptr [ %.pre.i.i.i.i, %if.then.i.i.i.i ], [ %1, %lor.lhs.false.i.i.i.i ]
  %idx.ext.i.i.i.i = zext i32 %4 to i64
  %add.ptr.i.i.i.i = getelementptr inbounds ptr, ptr %5, i64 %idx.ext.i.i.i.i
  %6 = load ptr, ptr %call.val1, align 8
  store ptr %6, ptr %add.ptr.i.i.i.i, align 8
  %7 = load ptr, ptr %m_undo.i.i.i, align 8
  %arrayidx10.i.i.i.i = getelementptr inbounds i8, ptr %7, i64 -4
  %8 = load i32, ptr %arrayidx10.i.i.i.i, align 4
  %inc.i.i.i.i = add i32 %8, 1
  store i32 %inc.i.i.i.i, ptr %arrayidx10.i.i.i.i, align 4
  ret void
}